target datalayout = "e-m:e-p270:32:32-p271:32:32-p272:64:64-i64:64-i128:128-f80:128-n8:16:32:64-S128"
target triple = "x86_64-pc-linux-gnu"

%"class.std::__cxx11::basic_string" = type { %"struct.std::__cxx11::basic_string<char>::_Alloc_hider", i64, %union.anon }
%"struct.std::__cxx11::basic_string<char>::_Alloc_hider" = type { ptr }
%union.anon = type { i64, [8 x i8] }
%"class.gmx::LogWriteHelper" = type { ptr }
%"class.gmx::LogEntryWriter" = type { %"struct.gmx::LogEntry" }
%"struct.gmx::LogEntry" = type <{ %"class.std::__cxx11::basic_string", i8, [7 x i8] }>
%"class.gmx::MDLogger" = type { %"class.gmx::LogLevelHelper", %"class.gmx::LogLevelHelper", %"class.gmx::LogLevelHelper", %"class.gmx::LogLevelHelper", %"class.gmx::LogLevelHelper" }
%"class.gmx::LogLevelHelper" = type { ptr }
%class.anon.181 = type { i8 }
%"struct.std::array" = type { [2 x i32] }
%struct.t_commrec = type <{ i32, i32, i32, i32, ptr, ptr, i32, [4 x i8], ptr, i32, i32, %struct.gmx_nodecomm_t, %"class.std::unique_ptr.183", ptr, i32, [4 x i8] }>
%struct.gmx_nodecomm_t = type { i8, ptr, i32, ptr }
%"class.std::unique_ptr.183" = type { %"struct.std::__uniq_ptr_data.184" }
%"struct.std::__uniq_ptr_data.184" = type { %"class.std::__uniq_ptr_impl.185" }
%"class.std::__uniq_ptr_impl.185" = type { %"class.std::tuple.186" }
%"class.std::tuple.186" = type { %"struct.std::_Tuple_impl.187" }
%"struct.std::_Tuple_impl.187" = type { %"struct.std::_Head_base.190" }
%"struct.std::_Head_base.190" = type { ptr }

@.str.4 = private unnamed_addr constant [141 x i8] c"generated/home/dtcxzyw/WorkSpace/Projects/compilers/llvm-opt-benchmark/bench/gromacs/gromacs/src/gromacs/taskassignment/resourcedivision.cpp\00", align 1
@TMPI_INT = external constant ptr, align 8
@.str.12 = private unnamed_addr constant [203 x i8] c"Note: Your choice of number of MPI ranks and amount of resources results in using %d OpenMP threads per rank, which is most likely inefficient. The optimum is usually between %d and %d threads per rank.\00", align 1
@.str.41 = private unnamed_addr constant [54 x i8] c"gmx_omp_nthreads_get(ModuleMultiThread::Default) >= 1\00", align 1
@.str.42 = private unnamed_addr constant [37 x i8] c"Must have at least one OpenMP thread\00", align 1

; Function Attrs: mustprogress nounwind uwtable
define linkonce_odr void @_ZN3gmx8LogEntryD2Ev(ptr noundef nonnull align 8 dereferenceable(33) %0) unnamed_addr #1 comdat align 2 {
  %2 = alloca ptr, align 8
  store ptr %0, ptr %2, align 8
  %3 = load ptr, ptr %2, align 8
  %4 = getelementptr inbounds %"struct.gmx::LogEntry", ptr %3, i32 0, i32 0
  call void @_ZNSt7__cxx1112basic_stringIcSt11char_traitsIcESaIcEED1Ev(ptr noundef nonnull align 8 dereferenceable(32) %4) #11
  ret void
}

; Function Attrs: mustprogress nounwind uwtable
define linkonce_odr void @_ZN3gmx8LogEntryC2Ev(ptr noundef nonnull align 8 dereferenceable(33) %0) unnamed_addr #1 comdat align 2 {
  %2 = alloca ptr, align 8
  store ptr %0, ptr %2, align 8
  %3 = load ptr, ptr %2, align 8
  %4 = getelementptr inbounds %"struct.gmx::LogEntry", ptr %3, i32 0, i32 0
  call void @_ZNSt7__cxx1112basic_stringIcSt11char_traitsIcESaIcEEC1Ev(ptr noundef nonnull align 8 dereferenceable(32) %4) #11
  %5 = getelementptr inbounds %"struct.gmx::LogEntry", ptr %3, i32 0, i32 1
  store i8 0, ptr %5, align 8
  ret void
}

; Function Attrs: mustprogress nounwind uwtable
define linkonce_odr void @_ZN3gmx14LogWriteHelperC2EPNS_10ILogTargetE(ptr noundef nonnull align 8 dereferenceable(8) %0, ptr noundef %1) unnamed_addr #1 comdat align 2 {
  %3 = alloca ptr, align 8
  %4 = alloca ptr, align 8
  store ptr %0, ptr %3, align 8
  store ptr %1, ptr %4, align 8
  %5 = load ptr, ptr %3, align 8
  %6 = getelementptr inbounds %"class.gmx::LogWriteHelper", ptr %5, i32 0, i32 0
  %7 = load ptr, ptr %4, align 8
  store ptr %7, ptr %6, align 8
  ret void
}

; Function Attrs: mustprogress nounwind uwtable
define linkonce_odr noundef ptr @_ZNSt14__array_traitsIiLm2EE6_S_ptrERA2_Ki(ptr noundef nonnull align 4 dereferenceable(8) %0) #1 comdat align 2 {
  %2 = alloca ptr, align 8
  store ptr %0, ptr %2, align 8
  %3 = load ptr, ptr %2, align 8
  %4 = getelementptr inbounds [2 x i32], ptr %3, i64 0, i64 0
  ret ptr %4
}

; Function Attrs: mustprogress nounwind uwtable
define linkonce_odr noundef nonnull align 4 dereferenceable(4) ptr @_ZNSt14__array_traitsIiLm2EE6_S_refERA2_Kim(ptr noundef nonnull align 4 dereferenceable(8) %0, i64 noundef %1) #1 comdat align 2 {
  %3 = alloca ptr, align 8
  %4 = alloca i64, align 8
  store ptr %0, ptr %3, align 8
  store i64 %1, ptr %4, align 8
  %5 = load ptr, ptr %3, align 8
  %6 = load i64, ptr %4, align 8
  %7 = getelementptr inbounds [2 x i32], ptr %5, i64 0, i64 %6
  ret ptr %7
}

; Function Attrs: mustprogress nounwind uwtable
define linkonce_odr void @_ZN3gmx14LogEntryWriterD2Ev(ptr noundef nonnull align 8 dereferenceable(40) %0) unnamed_addr #1 comdat align 2 {
  %2 = alloca ptr, align 8
  store ptr %0, ptr %2, align 8
  %3 = load ptr, ptr %2, align 8
  %4 = getelementptr inbounds %"class.gmx::LogEntryWriter", ptr %3, i32 0, i32 0
  call void @_ZN3gmx8LogEntryD2Ev(ptr noundef nonnull align 8 dereferenceable(33) %4) #11
  ret void
}

; Function Attrs: mustprogress uwtable
define linkonce_odr noundef nonnull align 8 dereferenceable(8) ptr @_ZN3gmx14LogWriteHelperaSERKNS_14LogEntryWriterE(ptr noundef nonnull align 8 dereferenceable(8) %0, ptr noundef nonnull align 8 dereferenceable(40) %1) #0 comdat align 2 {
  %3 = alloca ptr, align 8
  %4 = alloca ptr, align 8
  store ptr %0, ptr %3, align 8
  store ptr %1, ptr %4, align 8
  %5 = load ptr, ptr %3, align 8
  %6 = getelementptr inbounds %"class.gmx::LogWriteHelper", ptr %5, i32 0, i32 0
  %7 = load ptr, ptr %6, align 8
  %8 = load ptr, ptr %4, align 8
  %9 = getelementptr inbounds %"class.gmx::LogEntryWriter", ptr %8, i32 0, i32 0
  %10 = load ptr, ptr %7, align 8
  %11 = getelementptr inbounds ptr, ptr %10, i64 2
  %12 = load ptr, ptr %11, align 8
  call void %12(ptr noundef nonnull align 8 dereferenceable(8) %7, ptr noundef nonnull align 8 dereferenceable(33) %9)
  ret ptr %5
}

; Function Attrs: mustprogress uwtable
define linkonce_odr noundef nonnull align 8 dereferenceable(40) ptr @_ZN3gmx14LogEntryWriter10appendTextERKNSt7__cxx1112basic_stringIcSt11char_traitsIcESaIcEEE(ptr noundef nonnull align 8 dereferenceable(40) %0, ptr noundef nonnull align 8 dereferenceable(32) %1) #0 comdat align 2 {
  %3 = alloca ptr, align 8
  %4 = alloca ptr, align 8
  store ptr %0, ptr %3, align 8
  store ptr %1, ptr %4, align 8
  %5 = load ptr, ptr %3, align 8
  %6 = getelementptr inbounds %"class.gmx::LogEntryWriter", ptr %5, i32 0, i32 0
  %7 = getelementptr inbounds %"struct.gmx::LogEntry", ptr %6, i32 0, i32 0
  %8 = load ptr, ptr %4, align 8
  %9 = call noundef nonnull align 8 dereferenceable(32) ptr @_ZNSt7__cxx1112basic_stringIcSt11char_traitsIcESaIcEE6appendERKS4_(ptr noundef nonnull align 8 dereferenceable(32) %7, ptr noundef nonnull align 8 dereferenceable(32) %8)
  ret ptr %5
}

; Function Attrs: mustprogress nounwind uwtable
define linkonce_odr noundef nonnull align 8 dereferenceable(40) ptr @_ZN3gmx14LogEntryWriter11asParagraphEv(ptr noundef nonnull align 8 dereferenceable(40) %0) #1 comdat align 2 {
  %2 = alloca ptr, align 8
  store ptr %0, ptr %2, align 8
  %3 = load ptr, ptr %2, align 8
  %4 = getelementptr inbounds %"class.gmx::LogEntryWriter", ptr %3, i32 0, i32 0
  %5 = getelementptr inbounds %"struct.gmx::LogEntry", ptr %4, i32 0, i32 1
  store i8 1, ptr %5, align 8
  ret ptr %3
}

; Function Attrs: mustprogress uwtable
define linkonce_odr void @_ZN3gmx14LogEntryWriterC2Ev(ptr noundef nonnull align 8 dereferenceable(40) %0) unnamed_addr #0 comdat align 2 {
  %2 = alloca ptr, align 8
  store ptr %0, ptr %2, align 8
  %3 = load ptr, ptr %2, align 8
  %4 = getelementptr inbounds %"class.gmx::LogEntryWriter", ptr %3, i32 0, i32 0
  call void @_ZN3gmx8LogEntryC2Ev(ptr noundef nonnull align 8 dereferenceable(33) %4)
  ret void
}

; Function Attrs: mustprogress nounwind uwtable
define linkonce_odr noundef zeroext i1 @_ZNK3gmx14LogWriteHelpercvbEv(ptr noundef nonnull align 8 dereferenceable(8) %0) #1 comdat align 2 {
  %2 = alloca ptr, align 8
  store ptr %0, ptr %2, align 8
  %3 = load ptr, ptr %2, align 8
  %4 = getelementptr inbounds %"class.gmx::LogWriteHelper", ptr %3, i32 0, i32 0
  %5 = load ptr, ptr %4, align 8
  %6 = icmp eq ptr %5, null
  ret i1 %6
}

; Function Attrs: mustprogress uwtable
define linkonce_odr ptr @_ZNK3gmx14LogLevelHelpercvNS_14LogWriteHelperEEv(ptr noundef nonnull align 8 dereferenceable(8) %0) #0 comdat align 2 {
  %2 = alloca %"class.gmx::LogWriteHelper", align 8
  %3 = alloca ptr, align 8
  store ptr %0, ptr %3, align 8
  %4 = load ptr, ptr %3, align 8
  %5 = getelementptr inbounds %"class.gmx::LogLevelHelper", ptr %4, i32 0, i32 0
  %6 = load ptr, ptr %5, align 8
  call void @_ZN3gmx14LogWriteHelperC2EPNS_10ILogTargetE(ptr noundef nonnull align 8 dereferenceable(8) %2, ptr noundef %6)
  %7 = getelementptr inbounds %"class.gmx::LogWriteHelper", ptr %2, i32 0, i32 0
  %8 = load ptr, ptr %7, align 8
  ret ptr %8
}

; Function Attrs: mustprogress nounwind willreturn memory(none) uwtable
define linkonce_odr noundef i64 @_ZNKSt5arrayIiLm2EE4sizeEv(ptr noundef nonnull align 4 dereferenceable(8) %0) #6 comdat align 2 {
  %2 = alloca ptr, align 8
  store ptr %0, ptr %2, align 8
  ret i64 2
}

; Function Attrs: mustprogress nounwind willreturn memory(none) uwtable
define linkonce_odr noundef ptr @_ZNSt5arrayIiLm2EE4dataEv(ptr noundef nonnull align 4 dereferenceable(8) %0) #6 comdat align 2 {
  %2 = alloca ptr, align 8
  store ptr %0, ptr %2, align 8
  %3 = load ptr, ptr %2, align 8
  %4 = getelementptr inbounds %"struct.std::array", ptr %3, i32 0, i32 0
  %5 = call noundef ptr @_ZNSt14__array_traitsIiLm2EE6_S_ptrERA2_Ki(ptr noundef nonnull align 4 dereferenceable(8) %4) #11
  ret ptr %5
}

; Function Attrs: mustprogress nounwind uwtable
define linkonce_odr noundef nonnull align 4 dereferenceable(4) ptr @_ZNSt5arrayIiLm2EEixEm(ptr noundef nonnull align 4 dereferenceable(8) %0, i64 noundef %1) #1 comdat align 2 {
  %3 = alloca ptr, align 8
  %4 = alloca i64, align 8
  store ptr %0, ptr %3, align 8
  store i64 %1, ptr %4, align 8
  %5 = load ptr, ptr %3, align 8
  %6 = getelementptr inbounds %"struct.std::array", ptr %5, i32 0, i32 0
  %7 = load i64, ptr %4, align 8
  %8 = call noundef nonnull align 4 dereferenceable(4) ptr @_ZNSt14__array_traitsIiLm2EE6_S_refERA2_Kim(ptr noundef nonnull align 4 dereferenceable(8) %6, i64 noundef %7) #11
  ret ptr %8
}

; Function Attrs: mustprogress uwtable
define internal void @"_ZZ34check_resource_division_efficiencyPK13gmx_hw_info_tbP9t_commrecRKN3gmx8MDLoggerEENK3$_0clEv"(ptr noundef nonnull align 1 dereferenceable(1) %0) #0 align 2 {
  %2 = alloca ptr, align 8
  store ptr %0, ptr %2, align 8
  call void @_ZN3gmx8internal13assertHandlerEPKcS2_S2_S2_i(ptr noundef @.str.41, ptr noundef @.str.42, ptr noundef @"__PRETTY_FUNCTION__._ZZ34check_resource_division_efficiencyPK13gmx_hw_info_tbP9t_commrecRKN3gmx8MDLoggerEENK3$_0clEv", ptr noundef @.str.4, i32 noundef 598) #12
  unreachable
}

; Function Attrs: mustprogress uwtable
define void @_Z34check_resource_division_efficiencyPK13gmx_hw_info_tbP9t_commrecRKN3gmx8MDLoggerE(ptr noundef %0, i1 noundef zeroext %1, ptr noundef %2, ptr noundef nonnull align 8 dereferenceable(40) %3) #0 personality ptr @__gxx_personality_v0 {
  %5 = alloca ptr, align 8
  %6 = alloca i8, align 1
  %7 = alloca ptr, align 8
  %8 = alloca ptr, align 8
  %9 = alloca %class.anon.181, align 1
  %10 = alloca i32, align 4
  %11 = alloca i8, align 1
  %12 = alloca %"struct.std::array", align 4
  %13 = alloca %"struct.std::array", align 4
  %14 = alloca i32, align 4
  %15 = alloca %"class.std::__cxx11::basic_string", align 8
  %16 = alloca %"class.gmx::LogWriteHelper", align 8
  %17 = alloca ptr, align 8
  %18 = alloca i32, align 4
  %19 = alloca %"class.gmx::LogEntryWriter", align 8
  store ptr %0, ptr %5, align 8
  %20 = zext i1 %1 to i8
  store i8 %20, ptr %6, align 1
  store ptr %2, ptr %7, align 8
  store ptr %3, ptr %8, align 8
  %21 = call noundef i32 @_Z20gmx_omp_nthreads_get17ModuleMultiThread(i32 noundef 0)
  %22 = icmp sge i32 %21, 1
  br i1 %22, label %23, label %24

23:                                               ; preds = %4
  br label %25

24:                                               ; preds = %4
  call void @"_ZZ34check_resource_division_efficiencyPK13gmx_hw_info_tbP9t_commrecRKN3gmx8MDLoggerEENK3$_0clEv"(ptr noundef nonnull align 1 dereferenceable(1) %9)
  br label %25

25:                                               ; preds = %24, %23
  %26 = call noundef i32 @_Z20gmx_omp_nthreads_get17ModuleMultiThread(i32 noundef 0)
  store i32 %26, ptr %10, align 4
  %27 = load i8, ptr %6, align 1
  %28 = trunc i8 %27 to i1
  %29 = zext i1 %28 to i8
  store i8 %29, ptr %11, align 1
  %30 = load ptr, ptr %7, align 8
  %31 = getelementptr inbounds %struct.t_commrec, ptr %30, i32 0, i32 1
  %32 = load i32, ptr %31, align 4
  %33 = icmp sgt i32 %32, 1
  br i1 %33, label %34, label %56

34:                                               ; preds = %25
  %35 = load i32, ptr %10, align 4
  %36 = call noundef nonnull align 4 dereferenceable(4) ptr @_ZNSt5arrayIiLm2EEixEm(ptr noundef nonnull align 4 dereferenceable(8) %12, i64 noundef 0) #11
  store i32 %35, ptr %36, align 4
  %37 = load i8, ptr %6, align 1
  %38 = trunc i8 %37 to i1
  %39 = zext i1 %38 to i32
  %40 = call noundef nonnull align 4 dereferenceable(4) ptr @_ZNSt5arrayIiLm2EEixEm(ptr noundef nonnull align 4 dereferenceable(8) %12, i64 noundef 1) #11
  store i32 %39, ptr %40, align 4
  %41 = call noundef ptr @_ZNSt5arrayIiLm2EE4dataEv(ptr noundef nonnull align 4 dereferenceable(8) %12) #13
  %42 = call noundef ptr @_ZNSt5arrayIiLm2EE4dataEv(ptr noundef nonnull align 4 dereferenceable(8) %13) #13
  %43 = call noundef i64 @_ZNKSt5arrayIiLm2EE4sizeEv(ptr noundef nonnull align 4 dereferenceable(8) %12) #13
  %44 = trunc i64 %43 to i32
  %45 = load ptr, ptr @TMPI_INT, align 8
  %46 = load ptr, ptr %7, align 8
  %47 = getelementptr inbounds %struct.t_commrec, ptr %46, i32 0, i32 4
  %48 = load ptr, ptr %47, align 8
  %49 = call noundef i32 @_Z14tMPI_AllreducePvS_iP14tmpi_datatype_7tMPI_OpP10tmpi_comm_(ptr noundef %41, ptr noundef %42, i32 noundef %44, ptr noundef %45, i32 noundef 0, ptr noundef %48)
  %50 = call noundef nonnull align 4 dereferenceable(4) ptr @_ZNSt5arrayIiLm2EEixEm(ptr noundef nonnull align 4 dereferenceable(8) %13, i64 noundef 0) #11
  %51 = load i32, ptr %50, align 4
  store i32 %51, ptr %10, align 4
  %52 = call noundef nonnull align 4 dereferenceable(4) ptr @_ZNSt5arrayIiLm2EEixEm(ptr noundef nonnull align 4 dereferenceable(8) %13, i64 noundef 1) #11
  %53 = load i32, ptr %52, align 4
  %54 = icmp sgt i32 %53, 0
  %55 = zext i1 %54 to i8
  store i8 %55, ptr %11, align 1
  br label %56

56:                                               ; preds = %34, %25
  %57 = load i8, ptr %11, align 1
  %58 = trunc i8 %57 to i1
  br i1 %58, label %60, label %59

59:                                               ; preds = %56
  store i32 1, ptr %14, align 4
  br label %61

60:                                               ; preds = %56
  store i32 2, ptr %14, align 4
  br label %61

61:                                               ; preds = %60, %59
  %62 = load ptr, ptr %7, align 8
  %63 = icmp ne ptr %62, null
  br i1 %63, label %64, label %109

64:                                               ; preds = %61
  %65 = load ptr, ptr %7, align 8
  %66 = getelementptr inbounds %struct.t_commrec, ptr %65, i32 0, i32 1
  %67 = load i32, ptr %66, align 4
  %68 = icmp sgt i32 %67, 1
  br i1 %68, label %69, label %109

69:                                               ; preds = %64
  %70 = load i8, ptr %11, align 1
  %71 = trunc i8 %70 to i1
  br i1 %71, label %109, label %72

72:                                               ; preds = %69
  %73 = load i32, ptr %10, align 4
  %74 = load i32, ptr %14, align 4
  %75 = icmp slt i32 %73, %74
  br i1 %75, label %79, label %76

76:                                               ; preds = %72
  %77 = load i32, ptr %10, align 4
  %78 = icmp sgt i32 %77, 8
  br i1 %78, label %79, label %108

79:                                               ; preds = %76, %72
  %80 = load i32, ptr %10, align 4
  %81 = load i32, ptr %14, align 4
  call void (ptr, ptr, ...) @_ZN3gmx12formatStringB5cxx11EPKcz(ptr dead_on_unwind writable sret(%"class.std::__cxx11::basic_string") align 8 %15, ptr noundef @.str.12, i32 noundef %80, i32 noundef %81, i32 noundef 8)
  %82 = load ptr, ptr %8, align 8
  %83 = getelementptr inbounds %"class.gmx::MDLogger", ptr %82, i32 0, i32 0
  %84 = invoke ptr @_ZNK3gmx14LogLevelHelpercvNS_14LogWriteHelperEEv(ptr noundef nonnull align 8 dereferenceable(8) %83)
          to label %85 unwind label %90

85:                                               ; preds = %79
  %86 = getelementptr inbounds %"class.gmx::LogWriteHelper", ptr %16, i32 0, i32 0
  store ptr %84, ptr %86, align 8
  %87 = invoke noundef zeroext i1 @_ZNK3gmx14LogWriteHelpercvbEv(ptr noundef nonnull align 8 dereferenceable(8) %16)
          to label %88 unwind label %90

88:                                               ; preds = %85
  br i1 %87, label %89, label %94

89:                                               ; preds = %88
  br label %106

90:                                               ; preds = %94, %85, %79
  %91 = landingpad { ptr, i32 }
          cleanup
  %92 = extractvalue { ptr, i32 } %91, 0
  store ptr %92, ptr %17, align 8
  %93 = extractvalue { ptr, i32 } %91, 1
  store i32 %93, ptr %18, align 4
  br label %107

94:                                               ; preds = %88
  call void @llvm.memset.p0.i64(ptr align 8 %19, i8 0, i64 40, i1 false)
  invoke void @_ZN3gmx14LogEntryWriterC2Ev(ptr noundef nonnull align 8 dereferenceable(40) %19)
          to label %95 unwind label %90

95:                                               ; preds = %94
  %96 = invoke noundef nonnull align 8 dereferenceable(40) ptr @_ZN3gmx14LogEntryWriter11asParagraphEv(ptr noundef nonnull align 8 dereferenceable(40) %19)
          to label %97 unwind label %102

97:                                               ; preds = %95
  %98 = invoke noundef nonnull align 8 dereferenceable(40) ptr @_ZN3gmx14LogEntryWriter10appendTextERKNSt7__cxx1112basic_stringIcSt11char_traitsIcESaIcEEE(ptr noundef nonnull align 8 dereferenceable(40) %96, ptr noundef nonnull align 8 dereferenceable(32) %15)
          to label %99 unwind label %102

99:                                               ; preds = %97
  %100 = invoke noundef nonnull align 8 dereferenceable(8) ptr @_ZN3gmx14LogWriteHelperaSERKNS_14LogEntryWriterE(ptr noundef nonnull align 8 dereferenceable(8) %16, ptr noundef nonnull align 8 dereferenceable(40) %98)
          to label %101 unwind label %102

101:                                              ; preds = %99
  call void @_ZN3gmx14LogEntryWriterD2Ev(ptr noundef nonnull align 8 dereferenceable(40) %19) #11
  br label %106

102:                                              ; preds = %99, %97, %95
  %103 = landingpad { ptr, i32 }
          cleanup
  %104 = extractvalue { ptr, i32 } %103, 0
  store ptr %104, ptr %17, align 8
  %105 = extractvalue { ptr, i32 } %103, 1
  store i32 %105, ptr %18, align 4
  call void @_ZN3gmx14LogEntryWriterD2Ev(ptr noundef nonnull align 8 dereferenceable(40) %19) #11
  br label %107

106:                                              ; preds = %101, %89
  call void @_ZNSt7__cxx1112basic_stringIcSt11char_traitsIcESaIcEED1Ev(ptr noundef nonnull align 8 dereferenceable(32) %15) #11
  br label %108

107:                                              ; preds = %102, %90
  call void @_ZNSt7__cxx1112basic_stringIcSt11char_traitsIcESaIcEED1Ev(ptr noundef nonnull align 8 dereferenceable(32) %15) #11
  br label %110

108:                                              ; preds = %106, %76
  br label %109

109:                                              ; preds = %108, %69, %64, %61
  ret void

110:                                              ; preds = %107
  %111 = load ptr, ptr %17, align 8
  %112 = load i32, ptr %18, align 4
  %113 = insertvalue { ptr, i32 } poison, ptr %111, 0
  %114 = insertvalue { ptr, i32 } %113, i32 %112, 1
  resume { ptr, i32 } %114
}