; Function Attrs: mustprogress uwtable
define void @_Z34check_resource_division_efficiencyPK13gmx_hw_info_tbP9t_commrecRKN3gmx8MDLoggerE(ptr nocapture noundef readnone %0, i1 noundef zeroext %1, ptr nocapture noundef readonly %2, ptr nocapture noundef nonnull readonly align 8 dereferenceable(40) %3) local_unnamed_addr #0 personality ptr @__gxx_personality_v0 {
  %5 = alloca %"struct.std::array", align 4
  %6 = alloca %"struct.std::array", align 4
  %7 = alloca %"class.std::__cxx11::basic_string", align 8
  %8 = alloca %"class.gmx::LogEntryWriter", align 8
  %9 = tail call noundef i32 @_Z20gmx_omp_nthreads_get17ModuleMultiThread(i32 noundef 0)
  %10 = icmp sgt i32 %9, 0
  br i1 %10, label %12, label %11

11:                                               ; preds = %4
  tail call void @_ZN3gmx8internal13assertHandlerEPKcS2_S2_S2_i(ptr noundef nonnull @.str.41, ptr noundef nonnull @.str.42, ptr noundef nonnull @"__PRETTY_FUNCTION__._ZZ34check_resource_division_efficiencyPK13gmx_hw_info_tbP9t_commrecRKN3gmx8MDLoggerEENK3$_0clEv", ptr noundef nonnull @.str.4, i32 noundef 598) #15
  unreachable

12:                                               ; preds = %4
  %13 = tail call noundef i32 @_Z20gmx_omp_nthreads_get17ModuleMultiThread(i32 noundef 0)
  %14 = getelementptr inbounds i8, ptr %2, i64 4
  %15 = load i32, ptr %14, align 4
  %16 = icmp sgt i32 %15, 1
  br i1 %16, label %17, label %.thread

17:                                               ; preds = %12
  store i32 %13, ptr %5, align 4
  %18 = zext i1 %1 to i32
  %19 = getelementptr inbounds i8, ptr %5, i64 4
  store i32 %18, ptr %19, align 4
  %20 = load ptr, ptr @TMPI_INT, align 8
  %21 = getelementptr inbounds i8, ptr %2, i64 16
  %22 = load ptr, ptr %21, align 8
  %23 = call noundef i32 @_Z14tMPI_AllreducePvS_iP14tmpi_datatype_7tMPI_OpP10tmpi_comm_(ptr noundef nonnull %5, ptr noundef nonnull %6, i32 noundef 2, ptr noundef %20, i32 noundef 0, ptr noundef %22)
  %24 = load i32, ptr %6, align 4
  %25 = getelementptr inbounds i8, ptr %6, i64 4
  %26 = load i32, ptr %25, align 4
  %27 = icmp slt i32 %26, 1
  %.pre = load i32, ptr %14, align 4
  %28 = icmp sgt i32 %.pre, 1
  %.not31 = select i1 %28, i1 %27, i1 false
  %29 = add i32 %24, -9
  %or.cond = icmp ult i32 %29, -8
  %or.cond28 = select i1 %.not31, i1 %or.cond, i1 false
  br i1 %or.cond28, label %30, label %.thread

30:                                               ; preds = %17
  call void (ptr, ptr, ...) @_ZN3gmx12formatStringB5cxx11EPKcz(ptr dead_on_unwind nonnull writable sret(%"class.std::__cxx11::basic_string") align 8 %7, ptr noundef nonnull @.str.12, i32 noundef %24, i32 noundef 1, i32 noundef 8)
  %31 = load ptr, ptr %3, align 8
  %32 = icmp eq ptr %31, null
  br i1 %32, label %41, label %33

33:                                               ; preds = %30
  call void @llvm.memset.p0.i64(ptr noundef nonnull align 8 dereferenceable(40) %8, i8 0, i64 40, i1 false)
  call void @_ZNSt7__cxx1112basic_stringIcSt11char_traitsIcESaIcEEC1Ev(ptr noundef nonnull align 8 dereferenceable(32) %8) #16
  %34 = getelementptr inbounds i8, ptr %8, i64 32
  store i8 1, ptr %34, align 8
  %35 = invoke noundef nonnull align 8 dereferenceable(32) ptr @_ZNSt7__cxx1112basic_stringIcSt11char_traitsIcESaIcEE6appendERKS4_(ptr noundef nonnull align 8 dereferenceable(32) %8, ptr noundef nonnull align 8 dereferenceable(32) %7)
          to label %_ZN3gmx14LogEntryWriter10appendTextERKNSt7__cxx1112basic_stringIcSt11char_traitsIcESaIcEEE.exit unwind label %39

_ZN3gmx14LogEntryWriter10appendTextERKNSt7__cxx1112basic_stringIcSt11char_traitsIcESaIcEEE.exit: ; preds = %33
  %36 = load ptr, ptr %31, align 8
  %37 = getelementptr inbounds i8, ptr %36, i64 16
  %38 = load ptr, ptr %37, align 8
  invoke void %38(ptr noundef nonnull align 8 dereferenceable(8) %31, ptr noundef nonnull align 8 dereferenceable(33) %8)
          to label %_ZN3gmx14LogWriteHelperaSERKNS_14LogEntryWriterE.exit unwind label %39

_ZN3gmx14LogWriteHelperaSERKNS_14LogEntryWriterE.exit: ; preds = %_ZN3gmx14LogEntryWriter10appendTextERKNSt7__cxx1112basic_stringIcSt11char_traitsIcESaIcEEE.exit
  call void @_ZNSt7__cxx1112basic_stringIcSt11char_traitsIcESaIcEED1Ev(ptr noundef nonnull align 8 dereferenceable(32) %8) #16
  br label %41

39:                                               ; preds = %_ZN3gmx14LogEntryWriter10appendTextERKNSt7__cxx1112basic_stringIcSt11char_traitsIcESaIcEEE.exit, %33
  %40 = landingpad { ptr, i32 }
          cleanup
  call void @_ZNSt7__cxx1112basic_stringIcSt11char_traitsIcESaIcEED1Ev(ptr noundef nonnull align 8 dereferenceable(32) %8) #16
  call void @_ZNSt7__cxx1112basic_stringIcSt11char_traitsIcESaIcEED1Ev(ptr noundef nonnull align 8 dereferenceable(32) %7) #16
  resume { ptr, i32 } %40

41:                                               ; preds = %30, %_ZN3gmx14LogWriteHelperaSERKNS_14LogEntryWriterE.exit
  call void @_ZNSt7__cxx1112basic_stringIcSt11char_traitsIcESaIcEED1Ev(ptr noundef nonnull align 8 dereferenceable(32) %7) #16
  br label %.thread

.thread:                                          ; preds = %12, %17, %41
  ret void
}